target datalayout = "e-m:e-p270:32:32-p271:32:32-p272:64:64-i64:64-i128:128-f80:128-n8:16:32:64-S128"
target triple = "x86_64-pc-linux-gnu"

@do_fips = internal global i32 0, align 4
@.str.18 = private unnamed_addr constant [30 x i8] c"../openssl/test/threadstest.c\00", align 1
@privkey = internal global ptr null, align 8
@default_provider = internal global [2 x ptr] [ptr @.str.54, ptr null], align 16
@.str.44 = private unnamed_addr constant [14 x i8] c"multi_success\00", align 1
@multi_success = internal global i32 0, align 4
@multi_libctx = internal global ptr null, align 8
@multi_num_threads = internal global i64 0, align 8
@multi_threads = internal global [10 x i64] zeroinitializer, align 16
@multi_provider = internal global [5 x ptr] zeroinitializer, align 16
@.str.49 = private unnamed_addr constant [22 x i8] c"multi_num_threads + n\00", align 1
@.str.50 = private unnamed_addr constant [16 x i8] c"MAXIMUM_THREADS\00", align 1
@.str.51 = private unnamed_addr constant [61 x i8] c"run_thread(multi_threads + multi_num_threads++, thread_func)\00", align 1
@.str.52 = private unnamed_addr constant [34 x i8] c"wait_for_thread(multi_threads[i])\00", align 1
@fips_and_default_providers = internal global [3 x ptr] [ptr @.str.54, ptr @.str.14, ptr null], align 16
@.str.138 = private unnamed_addr constant [55 x i8] c"shared_evp_pkey = load_pkey_pem(privkey, multi_libctx)\00", align 1
@shared_evp_pkey = internal global ptr null, align 8
@.str.148 = private unnamed_addr constant [33 x i8] c"EVP_PKEY_up_ref(shared_evp_pkey)\00", align 1

; Function Attrs: nounwind uwtable
define internal i32 @wait_for_thread(i64 noundef %0) #0 {
  %2 = alloca i64, align 8
  store i64 %0, ptr %2, align 8, !tbaa !14
  %3 = load i64, ptr %2, align 8, !tbaa !14
  %4 = call i32 @pthread_join(i64 noundef %3, ptr noundef null)
  %5 = icmp eq i32 %4, 0
  %6 = zext i1 %5 to i32
  ret i32 %6
}

; Function Attrs: nounwind uwtable
define internal i32 @run_thread(ptr noundef %0, ptr noundef %1) #0 {
  %3 = alloca ptr, align 8
  %4 = alloca ptr, align 8
  store ptr %0, ptr %3, align 8, !tbaa !36
  store ptr %1, ptr %4, align 8, !tbaa !13
  %5 = load ptr, ptr %3, align 8, !tbaa !36
  %6 = load ptr, ptr %4, align 8, !tbaa !13
  %7 = call i32 @pthread_create(ptr noundef %5, ptr noundef null, ptr noundef @thread_run, ptr noundef %6) #10
  %8 = icmp eq i32 %7, 0
  %9 = zext i1 %8 to i32
  ret i32 %9
}

; Function Attrs: nounwind uwtable
define internal void @thead_teardown_libctx() #0 {
  %1 = alloca ptr, align 8
  call void @llvm.lifetime.start.p0(i64 8, ptr %1) #10
  store ptr @multi_provider, ptr %1, align 8, !tbaa !33
  br label %2

2:                                                ; preds = %10, %0
  %3 = load ptr, ptr %1, align 8, !tbaa !33
  %4 = load ptr, ptr %3, align 8, !tbaa !16
  %5 = icmp ne ptr %4, null
  br i1 %5, label %6, label %13

6:                                                ; preds = %2
  %7 = load ptr, ptr %1, align 8, !tbaa !33
  %8 = load ptr, ptr %7, align 8, !tbaa !16
  %9 = call i32 @OSSL_PROVIDER_unload(ptr noundef %8)
  br label %10

10:                                               ; preds = %6
  %11 = load ptr, ptr %1, align 8, !tbaa !33
  %12 = getelementptr inbounds nuw ptr, ptr %11, i32 1
  store ptr %12, ptr %1, align 8, !tbaa !33
  br label %2, !llvm.loop !35

13:                                               ; preds = %2
  %14 = load ptr, ptr @multi_libctx, align 8, !tbaa !20
  call void @OSSL_LIB_CTX_free(ptr noundef %14)
  call void @multi_intialise()
  call void @llvm.lifetime.end.p0(i64 8, ptr %1) #10
  ret void
}

; Function Attrs: nounwind uwtable
define internal i32 @teardown_threads() #0 {
  %1 = alloca i32, align 4
  %2 = alloca i64, align 8
  %3 = alloca i32, align 4
  call void @llvm.lifetime.start.p0(i64 8, ptr %2) #10
  store i64 0, ptr %2, align 8, !tbaa !14
  br label %4

4:                                                ; preds = %19, %0
  %5 = load i64, ptr %2, align 8, !tbaa !14
  %6 = load i64, ptr @multi_num_threads, align 8, !tbaa !14
  %7 = icmp ult i64 %5, %6
  br i1 %7, label %8, label %22

8:                                                ; preds = %4
  %9 = load i64, ptr %2, align 8, !tbaa !14
  %10 = getelementptr inbounds nuw [10 x i64], ptr @multi_threads, i64 0, i64 %9
  %11 = load i64, ptr %10, align 8, !tbaa !14
  %12 = call i32 @wait_for_thread(i64 noundef %11)
  %13 = icmp ne i32 %12, 0
  %14 = zext i1 %13 to i32
  %15 = call i32 @test_true(ptr noundef @.str.18, i32 noundef 771, ptr noundef @.str.52, i32 noundef %14)
  %16 = icmp ne i32 %15, 0
  br i1 %16, label %18, label %17

17:                                               ; preds = %8
  store i32 0, ptr %1, align 4
  store i32 1, ptr %3, align 4
  br label %23

18:                                               ; preds = %8
  br label %19

19:                                               ; preds = %18
  %20 = load i64, ptr %2, align 8, !tbaa !14
  %21 = add i64 %20, 1
  store i64 %21, ptr %2, align 8, !tbaa !14
  br label %4, !llvm.loop !32

22:                                               ; preds = %4
  store i32 1, ptr %1, align 4
  store i32 1, ptr %3, align 4
  br label %23

23:                                               ; preds = %22, %17
  call void @llvm.lifetime.end.p0(i64 8, ptr %2) #10
  %24 = load i32, ptr %1, align 4
  ret i32 %24
}

; Function Attrs: nounwind uwtable
define internal i32 @start_threads(i64 noundef %0, ptr noundef %1) #0 {
  %3 = alloca i32, align 4
  %4 = alloca i64, align 8
  %5 = alloca ptr, align 8
  %6 = alloca i64, align 8
  %7 = alloca i32, align 4
  store i64 %0, ptr %4, align 8, !tbaa !14
  store ptr %1, ptr %5, align 8, !tbaa !13
  call void @llvm.lifetime.start.p0(i64 8, ptr %6) #10
  %8 = load i64, ptr @multi_num_threads, align 8, !tbaa !14
  %9 = load i64, ptr %4, align 8, !tbaa !14
  %10 = add i64 %8, %9
  %11 = call i32 @test_size_t_le(ptr noundef @.str.18, i32 noundef 780, ptr noundef @.str.49, ptr noundef @.str.50, i64 noundef %10, i64 noundef 10)
  %12 = icmp ne i32 %11, 0
  br i1 %12, label %14, label %13

13:                                               ; preds = %2
  store i32 0, ptr %3, align 4
  store i32 1, ptr %7, align 4
  br label %35

14:                                               ; preds = %2
  store i64 0, ptr %6, align 8, !tbaa !14
  br label %15

15:                                               ; preds = %31, %14
  %16 = load i64, ptr %6, align 8, !tbaa !14
  %17 = load i64, ptr %4, align 8, !tbaa !14
  %18 = icmp ult i64 %16, %17
  br i1 %18, label %19, label %34

19:                                               ; preds = %15
  %20 = load i64, ptr @multi_num_threads, align 8, !tbaa !14
  %21 = add i64 %20, 1
  store i64 %21, ptr @multi_num_threads, align 8, !tbaa !14
  %22 = getelementptr inbounds nuw i64, ptr @multi_threads, i64 %20
  %23 = load ptr, ptr %5, align 8, !tbaa !13
  %24 = call i32 @run_thread(ptr noundef %22, ptr noundef %23)
  %25 = icmp ne i32 %24, 0
  %26 = zext i1 %25 to i32
  %27 = call i32 @test_true(ptr noundef @.str.18, i32 noundef 784, ptr noundef @.str.51, i32 noundef %26)
  %28 = icmp ne i32 %27, 0
  br i1 %28, label %30, label %29

29:                                               ; preds = %19
  store i32 0, ptr %3, align 4
  store i32 1, ptr %7, align 4
  br label %35

30:                                               ; preds = %19
  br label %31

31:                                               ; preds = %30
  %32 = load i64, ptr %6, align 8, !tbaa !14
  %33 = add i64 %32, 1
  store i64 %33, ptr %6, align 8, !tbaa !14
  br label %15, !llvm.loop !31

34:                                               ; preds = %15
  store i32 1, ptr %3, align 4
  store i32 1, ptr %7, align 4
  br label %35

35:                                               ; preds = %34, %29, %13
  call void @llvm.lifetime.end.p0(i64 8, ptr %6) #10
  %36 = load i32, ptr %3, align 4
  ret i32 %36
}

; Function Attrs: nounwind uwtable
define internal void @multi_intialise() #0 {
  store i32 1, ptr @multi_success, align 4, !tbaa !4
  store ptr null, ptr @multi_libctx, align 8, !tbaa !20
  store i64 0, ptr @multi_num_threads, align 8, !tbaa !14
  call void @llvm.memset.p0.i64(ptr align 16 @multi_threads, i8 0, i64 80, i1 false)
  call void @llvm.memset.p0.i64(ptr align 16 @multi_provider, i8 0, i64 40, i1 false)
  ret void
}

; Function Attrs: nounwind uwtable
define internal i32 @test_multi_shared_pkey_release() #0 {
  %1 = alloca i32, align 4
  %2 = alloca i64, align 8
  call void @llvm.lifetime.start.p0(i64 4, ptr %1) #10
  store i32 0, ptr %1, align 4, !tbaa !4
  call void @llvm.lifetime.start.p0(i64 8, ptr %2) #10
  store i64 1, ptr %2, align 8, !tbaa !14
  call void @multi_intialise()
  store ptr null, ptr @shared_evp_pkey, align 8, !tbaa !18
  %3 = load i32, ptr @do_fips, align 4, !tbaa !4
  %4 = icmp ne i32 %3, 0
  %5 = select i1 %4, ptr @fips_and_default_providers, ptr @default_provider
  %6 = call i32 @thread_setup_libctx(i32 noundef 1, ptr noundef %5)
  %7 = icmp ne i32 %6, 0
  br i1 %7, label %8, label %14

8:                                                ; preds = %0
  %9 = load ptr, ptr @privkey, align 8, !tbaa !8
  %10 = load ptr, ptr @multi_libctx, align 8, !tbaa !20
  %11 = call ptr @load_pkey_pem(ptr noundef %9, ptr noundef %10)
  store ptr %11, ptr @shared_evp_pkey, align 8, !tbaa !18
  %12 = call i32 @test_ptr(ptr noundef @.str.18, i32 noundef 1032, ptr noundef @.str.138, ptr noundef %11)
  %13 = icmp ne i32 %12, 0
  br i1 %13, label %15, label %14

14:                                               ; preds = %8, %0
  br label %46

15:                                               ; preds = %8
  br label %16

16:                                               ; preds = %28, %15
  %17 = load i64, ptr %2, align 8, !tbaa !14
  %18 = icmp ult i64 %17, 10
  br i1 %18, label %19, label %31

19:                                               ; preds = %16
  %20 = load ptr, ptr @shared_evp_pkey, align 8, !tbaa !18
  %21 = call i32 @EVP_PKEY_up_ref(ptr noundef %20)
  %22 = icmp ne i32 %21, 0
  %23 = zext i1 %22 to i32
  %24 = call i32 @test_true(ptr noundef @.str.18, i32 noundef 1035, ptr noundef @.str.148, i32 noundef %23)
  %25 = icmp ne i32 %24, 0
  br i1 %25, label %27, label %26

26:                                               ; preds = %19
  br label %46

27:                                               ; preds = %19
  br label %28

28:                                               ; preds = %27
  %29 = load i64, ptr %2, align 8, !tbaa !14
  %30 = add i64 %29, 1
  store i64 %30, ptr %2, align 8, !tbaa !14
  br label %16, !llvm.loop !22

31:                                               ; preds = %16
  %32 = call i32 @start_threads(i64 noundef 10, ptr noundef @thread_release_shared_pkey)
  %33 = icmp ne i32 %32, 0
  br i1 %33, label %35, label %34

34:                                               ; preds = %31
  br label %46

35:                                               ; preds = %31
  store i64 0, ptr %2, align 8, !tbaa !14
  %36 = call i32 @teardown_threads()
  %37 = icmp ne i32 %36, 0
  br i1 %37, label %38, label %44

38:                                               ; preds = %35
  %39 = load i32, ptr @multi_success, align 4, !tbaa !4
  %40 = icmp ne i32 %39, 0
  %41 = zext i1 %40 to i32
  %42 = call i32 @test_true(ptr noundef @.str.18, i32 noundef 1044, ptr noundef @.str.44, i32 noundef %41)
  %43 = icmp ne i32 %42, 0
  br i1 %43, label %45, label %44

44:                                               ; preds = %38, %35
  br label %46

45:                                               ; preds = %38
  store i32 1, ptr %1, align 4, !tbaa !4
  br label %46

46:                                               ; preds = %45, %44, %34, %26, %14
  br label %47

47:                                               ; preds = %50, %46
  %48 = load i64, ptr %2, align 8, !tbaa !14
  %49 = icmp ugt i64 %48, 0
  br i1 %49, label %50, label %54

50:                                               ; preds = %47
  %51 = load ptr, ptr @shared_evp_pkey, align 8, !tbaa !18
  call void @EVP_PKEY_free(ptr noundef %51)
  %52 = load i64, ptr %2, align 8, !tbaa !14
  %53 = add i64 %52, -1
  store i64 %53, ptr %2, align 8, !tbaa !14
  br label %47, !llvm.loop !23

54:                                               ; preds = %47
  call void @thead_teardown_libctx()
  %55 = load i32, ptr %1, align 4, !tbaa !4
  call void @llvm.lifetime.end.p0(i64 8, ptr %2) #10
  call void @llvm.lifetime.end.p0(i64 4, ptr %1) #10
  ret i32 %55
}