; Function Attrs: nounwind uwtable
define internal range(i32 0, 2) i32 @test_multi_shared_pkey_release() #1 {
  store i1 true, ptr @multi_success, align 4
  store ptr null, ptr @multi_libctx, align 8, !tbaa !16
  store i64 0, ptr @multi_num_threads, align 8, !tbaa !12
  tail call void @llvm.memset.p0.i64(ptr noundef nonnull align 16 dereferenceable(80) @multi_threads, i8 0, i64 80, i1 false)
  tail call void @llvm.memset.p0.i64(ptr noundef nonnull align 16 dereferenceable(40) @multi_provider, i8 0, i64 40, i1 false)
  store ptr null, ptr @shared_evp_pkey, align 8, !tbaa !18
  %.b = load i1, ptr @do_fips, align 4
  %1 = select i1 %.b, ptr @fips_and_default_providers, ptr @default_provider
  %2 = tail call fastcc i32 @thread_setup_libctx(i32 noundef 1, ptr noundef nonnull %1)
  %.not = icmp eq i32 %2, 0
  br i1 %.not, label %.lr.ph.preheader, label %3

3:                                                ; preds = %0
  %4 = load ptr, ptr @privkey, align 8, !tbaa !6
  %5 = load ptr, ptr @multi_libctx, align 8, !tbaa !16
  %6 = tail call ptr @load_pkey_pem(ptr noundef %4, ptr noundef %5) #11
  store ptr %6, ptr @shared_evp_pkey, align 8, !tbaa !18
  %7 = tail call i32 @test_ptr(ptr noundef nonnull @.str.18, i32 noundef 1032, ptr noundef nonnull @.str.138, ptr noundef %6) #11
  %.not7 = icmp eq i32 %7, 0
  br i1 %.not7, label %.lr.ph.preheader, label %.preheader

.preheader:                                       ; preds = %3, %13
  %.125 = phi i64 [ %14, %13 ], [ 1, %3 ]
  %8 = load ptr, ptr @shared_evp_pkey, align 8, !tbaa !18
  %9 = tail call i32 @EVP_PKEY_up_ref(ptr noundef %8) #11
  %10 = icmp ne i32 %9, 0
  %11 = zext i1 %10 to i32
  %12 = tail call i32 @test_true(ptr noundef nonnull @.str.18, i32 noundef 1035, ptr noundef nonnull @.str.148, i32 noundef %11) #11
  %.not11 = icmp eq i32 %12, 0
  br i1 %.not11, label %.lr.ph.preheader, label %13

13:                                               ; preds = %.preheader
  %14 = add nuw nsw i64 %.125, 1
  %exitcond.not = icmp eq i64 %14, 10
  br i1 %exitcond.not, label %15, label %.preheader, !llvm.loop !20

15:                                               ; preds = %13
  %16 = load i64, ptr @multi_num_threads, align 8, !tbaa !12
  %17 = add i64 %16, 10
  %18 = tail call i32 @test_size_t_le(ptr noundef nonnull @.str.18, i32 noundef 780, ptr noundef nonnull @.str.49, ptr noundef nonnull @.str.50, i64 noundef %17, i64 noundef 10) #11
  %.not.i = icmp eq i32 %18, 0
  br i1 %.not.i, label %.lr.ph.preheader, label %.preheader.i

.lr.ph.preheader:                                 ; preds = %.preheader, %.preheader.i, %3, %0, %15
  %.227.ph = phi i64 [ 1, %3 ], [ 1, %0 ], [ 10, %15 ], [ 10, %.preheader.i ], [ %.125, %.preheader ]
  br label %.lr.ph

19:                                               ; preds = %.preheader.i
  %20 = add nuw nsw i64 %.07.i, 1
  %exitcond.not.i = icmp eq i64 %20, 10
  br i1 %exitcond.not.i, label %start_threads.exit, label %.preheader.i, !llvm.loop !21

.preheader.i:                                     ; preds = %15, %19
  %.07.i = phi i64 [ %20, %19 ], [ 0, %15 ]
  %21 = load i64, ptr @multi_num_threads, align 8, !tbaa !12
  %22 = add i64 %21, 1
  store i64 %22, ptr @multi_num_threads, align 8, !tbaa !12
  %23 = getelementptr inbounds nuw i64, ptr @multi_threads, i64 %21
  %24 = tail call i32 @pthread_create(ptr noundef nonnull %23, ptr noundef null, ptr noundef nonnull @thread_run, ptr noundef nonnull @thread_release_shared_pkey) #11
  %25 = icmp eq i32 %24, 0
  %26 = zext i1 %25 to i32
  %27 = tail call i32 @test_true(ptr noundef nonnull @.str.18, i32 noundef 784, ptr noundef nonnull @.str.51, i32 noundef %26) #11
  %.not6.i = icmp eq i32 %27, 0
  br i1 %.not6.i, label %.lr.ph.preheader, label %19

start_threads.exit:                               ; preds = %19
  %28 = load i64, ptr @multi_num_threads, align 8, !tbaa !12
  %.not8.i = icmp eq i64 %28, 0
  br i1 %.not8.i, label %.loopexit, label %.lr.ph.i

29:                                               ; preds = %.lr.ph.i
  %30 = add nuw i64 %.05.i13, 1
  %31 = load i64, ptr @multi_num_threads, align 8, !tbaa !12
  %32 = icmp ult i64 %30, %31
  br i1 %32, label %.lr.ph.i, label %.loopexit, !llvm.loop !22

.lr.ph.i:                                         ; preds = %start_threads.exit, %29
  %.05.i13 = phi i64 [ %30, %29 ], [ 0, %start_threads.exit ]
  %33 = getelementptr inbounds nuw [10 x i64], ptr @multi_threads, i64 0, i64 %.05.i13
  %34 = load i64, ptr %33, align 8, !tbaa !12
  %35 = tail call i32 @pthread_join(i64 noundef %34, ptr noundef null) #11
  %36 = icmp eq i32 %35, 0
  %37 = zext i1 %36 to i32
  %38 = tail call i32 @test_true(ptr noundef nonnull @.str.18, i32 noundef 771, ptr noundef nonnull @.str.52, i32 noundef %37) #11
  %.not.i14 = icmp eq i32 %38, 0
  br i1 %.not.i14, label %._crit_edge, label %29

.loopexit:                                        ; preds = %29, %start_threads.exit
  %.b6 = load i1, ptr @multi_success, align 4
  %39 = zext i1 %.b6 to i32
  %40 = tail call i32 @test_true(ptr noundef nonnull @.str.18, i32 noundef 1044, ptr noundef nonnull @.str.44, i32 noundef %39) #11
  %.not10 = icmp ne i32 %40, 0
  %spec.select = zext i1 %.not10 to i32
  br label %._crit_edge

.lr.ph:                                           ; preds = %.lr.ph.preheader, %.lr.ph
  %.227 = phi i64 [ %42, %.lr.ph ], [ %.227.ph, %.lr.ph.preheader ]
  %41 = load ptr, ptr @shared_evp_pkey, align 8, !tbaa !18
  tail call void @EVP_PKEY_free(ptr noundef %41) #11
  %42 = add nsw i64 %.227, -1
  %.not12 = icmp eq i64 %42, 0
  br i1 %.not12, label %._crit_edge, label %.lr.ph, !llvm.loop !23

._crit_edge:                                      ; preds = %.lr.ph.i, %.lr.ph, %.loopexit
  %.0535 = phi i32 [ %spec.select, %.loopexit ], [ 0, %.lr.ph ], [ 0, %.lr.ph.i ]
  %43 = load ptr, ptr @multi_provider, align 16, !tbaa !24
  %.not4.i = icmp eq ptr %43, null
  br i1 %.not4.i, label %thead_teardown_libctx.exit, label %.lr.ph.i15

.lr.ph.i15:                                       ; preds = %._crit_edge, %.lr.ph.i15
  %44 = phi ptr [ %47, %.lr.ph.i15 ], [ %43, %._crit_edge ]
  %.05.i16 = phi ptr [ %46, %.lr.ph.i15 ], [ @multi_provider, %._crit_edge ]
  %45 = tail call i32 @OSSL_PROVIDER_unload(ptr noundef nonnull %44) #11
  %46 = getelementptr inbounds nuw i8, ptr %.05.i16, i64 8
  %47 = load ptr, ptr %46, align 8, !tbaa !24
  %.not.i17 = icmp eq ptr %47, null
  br i1 %.not.i17, label %thead_teardown_libctx.exit, label %.lr.ph.i15, !llvm.loop !26

thead_teardown_libctx.exit:                       ; preds = %.lr.ph.i15, %._crit_edge
  %48 = load ptr, ptr @multi_libctx, align 8, !tbaa !16
  tail call void @OSSL_LIB_CTX_free(ptr noundef %48) #11
  store i1 true, ptr @multi_success, align 4
  store ptr null, ptr @multi_libctx, align 8, !tbaa !16
  store i64 0, ptr @multi_num_threads, align 8, !tbaa !12
  tail call void @llvm.memset.p0.i64(ptr noundef nonnull align 16 dereferenceable(80) @multi_threads, i8 0, i64 80, i1 false)
  tail call void @llvm.memset.p0.i64(ptr noundef nonnull align 16 dereferenceable(40) @multi_provider, i8 0, i64 40, i1 false)
  ret i32 %.0535
}